; Function Attrs: nounwind uwtable
define ptr @l_Lake_longOptionOrSpace___rarg___lambda__1___boxed(ptr noundef %0, ptr noundef %1, ptr noundef %2, ptr noundef %3) #0 {
  %5 = tail call ptr @lean_string_utf8_extract(ptr noundef %0, ptr noundef nonnull inttoptr (i64 1 to ptr), ptr noundef %1) #3
  %6 = tail call ptr @lean_apply_1(ptr noundef %2, ptr noundef %5) #3
  %7 = ptrtoint ptr %3 to i64
  %8 = and i64 %7, 1
  %.not = icmp eq i64 %8, 0
  br i1 %.not, label %9, label %lean_dec.exit9

9:                                                ; preds = %4
  %10 = load i32, ptr %3, align 4, !tbaa !4
  %11 = icmp sgt i32 %10, 1
  br i1 %11, label %12, label %14, !prof !9

12:                                               ; preds = %9
  %13 = add nsw i32 %10, -1
  store i32 %13, ptr %3, align 4, !tbaa !4
  br label %lean_dec.exit9

14:                                               ; preds = %9
  %.not.i = icmp eq i32 %10, 0
  br i1 %.not.i, label %lean_dec.exit9, label %15

15:                                               ; preds = %14
  tail call void @lean_dec_ref_cold(ptr noundef nonnull %3) #3
  br label %lean_dec.exit9

lean_dec.exit9:                                   ; preds = %15, %14, %12, %4
  %16 = ptrtoint ptr %1 to i64
  %17 = and i64 %16, 1
  %.not14 = icmp eq i64 %17, 0
  br i1 %.not14, label %18, label %lean_dec.exit8

18:                                               ; preds = %lean_dec.exit9
  %19 = load i32, ptr %1, align 4, !tbaa !4
  %20 = icmp sgt i32 %19, 1
  br i1 %20, label %21, label %23, !prof !9

21:                                               ; preds = %18
  %22 = add nsw i32 %19, -1
  store i32 %22, ptr %1, align 4, !tbaa !4
  br label %lean_dec.exit8

23:                                               ; preds = %18
  %.not.i10 = icmp eq i32 %19, 0
  br i1 %.not.i10, label %lean_dec.exit8, label %24

24:                                               ; preds = %23
  tail call void @lean_dec_ref_cold(ptr noundef nonnull %1) #3
  br label %lean_dec.exit8

lean_dec.exit8:                                   ; preds = %24, %23, %21, %lean_dec.exit9
  %25 = ptrtoint ptr %0 to i64
  %26 = and i64 %25, 1
  %.not15 = icmp eq i64 %26, 0
  br i1 %.not15, label %27, label %lean_dec.exit

27:                                               ; preds = %lean_dec.exit8
  %28 = load i32, ptr %0, align 4, !tbaa !4
  %29 = icmp sgt i32 %28, 1
  br i1 %29, label %30, label %32, !prof !9

30:                                               ; preds = %27
  %31 = add nsw i32 %28, -1
  store i32 %31, ptr %0, align 4, !tbaa !4
  br label %lean_dec.exit

32:                                               ; preds = %27
  %.not.i12 = icmp eq i32 %28, 0
  br i1 %.not.i12, label %lean_dec.exit, label %33

33:                                               ; preds = %32
  tail call void @lean_dec_ref_cold(ptr noundef nonnull %0) #3
  br label %lean_dec.exit

lean_dec.exit:                                    ; preds = %33, %32, %30, %lean_dec.exit8
  ret ptr %6
}